(lp0
(dp1
S'key'
p2
S'ODSHF-HSUCH-KLNJU-ZGSLV-AMORFXQ'
p3
sS'is_used'
p4
I01
sa(dp5
S'key'
p6
S'ODSHF-HSUCH-KLNJU-ZGSLV-AAAAAAA'
p7
sS'is_used'
p8
I01
sa(dp9
S'key'
p10
S'ODSHF-HSUCH-KLNJU-ZGSLV-BBBBBBB'
p11
sS'is_used'
p12
I01
sa(dp13
S'key'
p14
S'ODSHF-HSUCH-KLNJU-ZGSLV-CCCCCCC'
p15
sS'is_used'
p16
I01
sa(dp17
S'key'
p18
S'ODSHF-HSUCH-KLNJU-ZGSLV-DDDDDDD'
p19
sS'is_used'
p20
I01
sa(dp21
S'key'
p22
S'ODSHF-HSUCH-KLNJU-ZGSLV-EEEEEEE'
p23
sS'is_used'
p24
I01
sa(dp25
S'key'
p26
S'ODSHF-HSUCH-KLNJU-ZGSLV-EEEEEEG'
p27
sS'is_used'
p28
I01
sa(dp29
S'key'
p30
S'ODSHF-HSUCH-KLNJU-ZGSLV-AMORFXU'
p31
sS'is_used'
p32
I01
sa(dp33
S'key'
p34
S'AWICT-HVLCY-NNYEK-DAWJZ-YRRSUTU'
p35
sS'is_used'
p36
I01
sa(dp37
S'key'
p38
S'LJTNQ-JNYLD-OWWVP-GBEDZ-ABDMXGI'
p39
sS'is_used'
p40
I01
sa(dp41
S'key'
p42
S'FJGRE-IOLAD-HGRST-WLFDI-ESTUBQG'
p43
sS'is_used'
p44
I01
sa(dp45
S'key'
p46
S'KTDBY-AFLMX-HOTWR-BUQWY-ZGWLWIM'
p47
sS'is_used'
p48
I01
sa.